target datalayout = "e-m:e-p270:32:32-p271:32:32-p272:64:64-i64:64-i128:128-f80:128-n8:16:32:64-S128"
target triple = "x86_64-pc-linux-gnu"

%struct.LOCKTAG = type { i32, i32, i32, i16, i8, i8 }

@MyDatabaseId = external global i32, align 4

; Function Attrs: nounwind uwtable
define dso_local void @UnlockDatabaseObject(i32 noundef %0, i32 noundef %1, i16 noundef zeroext %2, i32 noundef %3) #0 {
  %5 = alloca i32, align 4
  %6 = alloca i32, align 4
  %7 = alloca i16, align 2
  %8 = alloca i32, align 4
  %9 = alloca %struct.LOCKTAG, align 4
  store i32 %0, ptr %5, align 4
  store i32 %1, ptr %6, align 4
  store i16 %2, ptr %7, align 2
  store i32 %3, ptr %8, align 4
  call void @llvm.lifetime.start.p0(i64 16, ptr %9) #6
  %10 = load i32, ptr @MyDatabaseId, align 4
  %11 = getelementptr inbounds nuw %struct.LOCKTAG, ptr %9, i32 0, i32 0
  store i32 %10, ptr %11, align 4
  %12 = load i32, ptr %5, align 4
  %13 = getelementptr inbounds nuw %struct.LOCKTAG, ptr %9, i32 0, i32 1
  store i32 %12, ptr %13, align 4
  %14 = load i32, ptr %6, align 4
  %15 = getelementptr inbounds nuw %struct.LOCKTAG, ptr %9, i32 0, i32 2
  store i32 %14, ptr %15, align 4
  %16 = load i16, ptr %7, align 2
  %17 = getelementptr inbounds nuw %struct.LOCKTAG, ptr %9, i32 0, i32 3
  store i16 %16, ptr %17, align 4
  %18 = getelementptr inbounds nuw %struct.LOCKTAG, ptr %9, i32 0, i32 4
  store i8 8, ptr %18, align 2
  %19 = getelementptr inbounds nuw %struct.LOCKTAG, ptr %9, i32 0, i32 5
  store i8 1, ptr %19, align 1
  %20 = load i32, ptr %8, align 4
  %21 = call zeroext i1 @LockRelease(ptr noundef %9, i32 noundef %20, i1 noundef zeroext false)
  call void @llvm.lifetime.end.p0(i64 16, ptr %9) #6
  ret void
}